; Function Attrs: mustprogress uwtable
define hidden noundef i32 @mbedtls_pk_decrypt(ptr noundef readonly captures(none) %0, ptr noundef %1, i64 noundef %2, ptr noundef %3, ptr noundef %4, i64 noundef %5, ptr noundef %6, ptr noundef %7) local_unnamed_addr #1 {
  %9 = load ptr, ptr %0, align 8, !tbaa !3
  %10 = icmp eq ptr %9, null
  br i1 %10, label %19, label %11

11:                                               ; preds = %8
  %12 = getelementptr inbounds nuw i8, ptr %9, i64 48
  %13 = load ptr, ptr %12, align 8, !tbaa !18
  %14 = icmp eq ptr %13, null
  br i1 %14, label %19, label %15

15:                                               ; preds = %11
  %16 = getelementptr inbounds nuw i8, ptr %0, i64 8
  %17 = load ptr, ptr %16, align 8, !tbaa !13
  %18 = tail call noundef i32 %13(ptr noundef %17, ptr noundef %1, i64 noundef %2, ptr noundef %3, ptr noundef %4, i64 noundef %5, ptr noundef %6, ptr noundef %7)
  br label %19

19:                                               ; preds = %11, %8, %15
  %.0 = phi i32 [ %18, %15 ], [ -16000, %8 ], [ -16128, %11 ]
  ret i32 %.0
}